target datalayout = "e-m:e-p270:32:32-p271:32:32-p272:64:64-i64:64-i128:128-f80:128-n8:16:32:64-S128"
target triple = "x86_64-pc-linux-gnu"

%"class.ncnn::Layer" = type { ptr, i8, i8, i8, i8, i8, i8, i8, i8, i8, i8, i8, i8, i8, i8, i8, i8, i8, i8, i8, i8, i32, ptr, i32, %"class.std::__cxx11::basic_string", %"class.std::__cxx11::basic_string", %"class.std::vector", %"class.std::vector", %"class.std::vector.3", %"class.std::vector.3" }
%"class.std::__cxx11::basic_string" = type { %"struct.std::__cxx11::basic_string<char>::_Alloc_hider", i64, %union.anon }
%"struct.std::__cxx11::basic_string<char>::_Alloc_hider" = type { ptr }
%union.anon = type { i64, [8 x i8] }
%"class.std::vector" = type { %"struct.std::_Vector_base" }
%"struct.std::_Vector_base" = type { %"struct.std::_Vector_base<int, std::allocator<int>>::_Vector_impl" }
%"struct.std::_Vector_base<int, std::allocator<int>>::_Vector_impl" = type { %"struct.std::_Vector_base<int, std::allocator<int>>::_Vector_impl_data" }
%"struct.std::_Vector_base<int, std::allocator<int>>::_Vector_impl_data" = type { ptr, ptr, ptr }
%"class.std::vector.3" = type { %"struct.std::_Vector_base.4" }
%"struct.std::_Vector_base.4" = type { %"struct.std::_Vector_base<ncnn::Mat, std::allocator<ncnn::Mat>>::_Vector_impl" }
%"struct.std::_Vector_base<ncnn::Mat, std::allocator<ncnn::Mat>>::_Vector_impl" = type { %"struct.std::_Vector_base<ncnn::Mat, std::allocator<ncnn::Mat>>::_Vector_impl_data" }
%"struct.std::_Vector_base<ncnn::Mat, std::allocator<ncnn::Mat>>::_Vector_impl_data" = type { ptr, ptr, ptr }
%"class.ncnn::Mat" = type { ptr, ptr, i64, i32, ptr, i32, i32, i32, i32, i32, i64 }
%"class.ncnn::MultiHeadAttention_x86_fma" = type { %"class.ncnn::MultiHeadAttention.base", ptr, ptr, ptr, ptr, ptr, ptr, ptr }
%"class.ncnn::MultiHeadAttention.base" = type <{ %"class.ncnn::Layer", i32, i32, i32, i32, i32, i32, float, i32, %"class.ncnn::Mat", %"class.ncnn::Mat", %"class.ncnn::Mat", %"class.ncnn::Mat", %"class.ncnn::Mat", %"class.ncnn::Mat", %"class.ncnn::Mat", %"class.ncnn::Mat", %"class.ncnn::Mat", %"class.ncnn::Mat", %"class.ncnn::Mat", float }>

; Function Attrs: mustprogress uwtable
define hidden void @_ZN4ncnn26MultiHeadAttention_x86_fmaC2Ev(ptr noundef nonnull align 8 dereferenceable(1096) %0) unnamed_addr #2 align 2 {
  %2 = alloca ptr, align 8
  store ptr %0, ptr %2, align 8, !tbaa !11
  %3 = load ptr, ptr %2, align 8
  call void @_ZN4ncnn18MultiHeadAttentionC2Ev(ptr noundef nonnull align 8 dereferenceable(1036) %3)
  store ptr getelementptr inbounds inrange(-16, 80) ({ [12 x ptr] }, ptr @_ZTVN4ncnn26MultiHeadAttention_x86_fmaE, i32 0, i32 0, i32 2), ptr %3, align 8, !tbaa !9
  %4 = getelementptr inbounds nuw %"class.ncnn::Layer", ptr %3, i32 0, i32 4
  store i8 1, ptr %4, align 1, !tbaa !41
  %5 = getelementptr inbounds nuw %"class.ncnn::MultiHeadAttention_x86_fma", ptr %3, i32 0, i32 1
  store ptr null, ptr %5, align 8, !tbaa !49
  %6 = getelementptr inbounds nuw %"class.ncnn::MultiHeadAttention_x86_fma", ptr %3, i32 0, i32 2
  store ptr null, ptr %6, align 8, !tbaa !54
  %7 = getelementptr inbounds nuw %"class.ncnn::MultiHeadAttention_x86_fma", ptr %3, i32 0, i32 3
  store ptr null, ptr %7, align 8, !tbaa !56
  %8 = getelementptr inbounds nuw %"class.ncnn::MultiHeadAttention_x86_fma", ptr %3, i32 0, i32 5
  store ptr null, ptr %8, align 8, !tbaa !61
  %9 = getelementptr inbounds nuw %"class.ncnn::MultiHeadAttention_x86_fma", ptr %3, i32 0, i32 6
  store ptr null, ptr %9, align 8, !tbaa !64
  %10 = getelementptr inbounds nuw %"class.ncnn::MultiHeadAttention_x86_fma", ptr %3, i32 0, i32 7
  store ptr null, ptr %10, align 8, !tbaa !44
  %11 = getelementptr inbounds nuw %"class.ncnn::MultiHeadAttention_x86_fma", ptr %3, i32 0, i32 4
  store ptr null, ptr %11, align 8, !tbaa !58
  ret void
}