; Function Attrs: mustprogress uwtable
define hidden void @_ZN4ncnn26MultiHeadAttention_x86_fmaC2Ev(ptr noundef nonnull align 8 dereferenceable(1096) %0) unnamed_addr #2 align 2 {
  tail call void @_ZN4ncnn18MultiHeadAttentionC2Ev(ptr noundef nonnull align 8 dereferenceable(1036) %0)
  store ptr getelementptr inbounds nuw inrange(-16, 80) (i8, ptr @_ZTVN4ncnn26MultiHeadAttention_x86_fmaE, i64 16), ptr %0, align 8, !tbaa !4
  %2 = getelementptr inbounds nuw i8, ptr %0, i64 11
  store i8 1, ptr %2, align 1, !tbaa !39
  %3 = getelementptr inbounds nuw i8, ptr %0, i64 1040
  tail call void @llvm.memset.p0.i64(ptr noundef nonnull align 8 dereferenceable(56) %3, i8 0, i64 56, i1 false)
  ret void
}